target datalayout = "e-m:e-p270:32:32-p271:32:32-p272:64:64-i64:64-i128:128-f80:128-n8:16:32:64-S128"
target triple = "x86_64-pc-linux-gnu"

%struct.dwt_params_t = type { ptr, i32, i32, i32, i32, i32, i32, ptr, float }

; Function Attrs: nounwind uwtable
define internal i32 @_first_scale_visible(i32 noundef %0, float noundef %1) #0 {
  %3 = alloca i32, align 4
  %4 = alloca float, align 4
  %5 = alloca i32, align 4
  %6 = alloca i32, align 4
  %7 = alloca i32, align 4
  %8 = alloca i32, align 4
  store i32 %0, ptr %3, align 4, !tbaa !11
  store float %1, ptr %4, align 4, !tbaa !14
  call void @llvm.lifetime.start.p0(i64 4, ptr %5) #10
  store i32 0, ptr %5, align 4, !tbaa !11
  call void @llvm.lifetime.start.p0(i64 4, ptr %6) #10
  store i32 0, ptr %6, align 4, !tbaa !11
  br label %9

9:                                                ; preds = %31, %2
  %10 = load i32, ptr %6, align 4, !tbaa !11
  %11 = load i32, ptr %3, align 4, !tbaa !11
  %12 = icmp ult i32 %10, %11
  br i1 %12, label %14, label %13

13:                                               ; preds = %9
  store i32 2, ptr %7, align 4
  br label %34

14:                                               ; preds = %9
  call void @llvm.lifetime.start.p0(i64 4, ptr %8) #10
  %15 = load i32, ptr %6, align 4, !tbaa !11
  %16 = shl i32 1, %15
  store i32 %16, ptr %8, align 4, !tbaa !11
  %17 = load float, ptr %4, align 4, !tbaa !14
  %18 = load i32, ptr %8, align 4, !tbaa !11
  %19 = sitofp i32 %18 to float
  %20 = fmul reassoc nsz arcp contract afn float %19, %17
  %21 = fptosi float %20 to i32
  store i32 %21, ptr %8, align 4, !tbaa !11
  %22 = load i32, ptr %8, align 4, !tbaa !11
  %23 = icmp sgt i32 %22, 0
  br i1 %23, label %24, label %27

24:                                               ; preds = %14
  %25 = load i32, ptr %6, align 4, !tbaa !11
  %26 = add i32 %25, 1
  store i32 %26, ptr %5, align 4, !tbaa !11
  store i32 2, ptr %7, align 4
  br label %28

27:                                               ; preds = %14
  store i32 0, ptr %7, align 4
  br label %28

28:                                               ; preds = %27, %24
  call void @llvm.lifetime.end.p0(i64 4, ptr %8) #10
  %29 = load i32, ptr %7, align 4
  switch i32 %29, label %34 [
    i32 0, label %30
  ]

30:                                               ; preds = %28
  br label %31

31:                                               ; preds = %30
  %32 = load i32, ptr %6, align 4, !tbaa !11
  %33 = add i32 %32, 1
  store i32 %33, ptr %6, align 4, !tbaa !11
  br label %9

34:                                               ; preds = %28, %13
  call void @llvm.lifetime.end.p0(i64 4, ptr %6) #10
  br label %35

35:                                               ; preds = %34
  %36 = load i32, ptr %5, align 4, !tbaa !11
  store i32 1, ptr %7, align 4
  call void @llvm.lifetime.end.p0(i64 4, ptr %5) #10
  ret i32 %36
}

; Function Attrs: nounwind uwtable
define i32 @dt_dwt_first_scale_visible(ptr noundef %0) #0 {
  %2 = alloca ptr, align 8
  store ptr %0, ptr %2, align 8, !tbaa !16
  %3 = load ptr, ptr %2, align 8, !tbaa !16
  %4 = getelementptr inbounds nuw %struct.dwt_params_t, ptr %3, i32 0, i32 4
  %5 = load i32, ptr %4, align 4, !tbaa !23
  %6 = load ptr, ptr %2, align 8, !tbaa !16
  %7 = getelementptr inbounds nuw %struct.dwt_params_t, ptr %6, i32 0, i32 8
  %8 = load float, ptr %7, align 8, !tbaa !27
  %9 = call i32 @_first_scale_visible(i32 noundef %5, float noundef %8)
  ret i32 %9
}