; Function Attrs: nofree norecurse nosync nounwind memory(argmem: read) uwtable
define i32 @dt_dwt_first_scale_visible(ptr noundef readonly captures(none) %0) local_unnamed_addr #5 {
  %2 = getelementptr inbounds nuw i8, ptr %0, i64 20
  %3 = load i32, ptr %2, align 4, !tbaa !17
  %4 = getelementptr inbounds nuw i8, ptr %0, i64 40
  %5 = load float, ptr %4, align 8, !tbaa !21
  br label %6

6:                                                ; preds = %7, %1
  %.010.i = phi i32 [ 0, %1 ], [ %13, %7 ]
  %exitcond.not.i = icmp eq i32 %.010.i, %3
  br i1 %exitcond.not.i, label %_first_scale_visible.exit, label %7

7:                                                ; preds = %6
  %8 = shl nuw i32 1, %.010.i
  %9 = sitofp i32 %8 to float
  %10 = fmul reassoc nsz arcp contract afn float %5, %9
  %11 = fptosi float %10 to i32
  %12 = icmp slt i32 %11, 1
  %13 = add i32 %.010.i, 1
  br i1 %12, label %6, label %_first_scale_visible.exit

_first_scale_visible.exit:                        ; preds = %6, %7
  %.1.i = phi i32 [ %13, %7 ], [ 0, %6 ]
  ret i32 %.1.i
}